target datalayout = "e-m:e-p270:32:32-p271:32:32-p272:64:64-i64:64-i128:128-f80:128-n8:16:32:64-S128"
target triple = "x86_64-pc-linux-gnu"

%class.JVMCIEnv = type { ptr, i8, i8, ptr, i8, i8, ptr, i32, i32, ptr, ptr }

; Function Attrs: mustprogress nounwind uwtable
define linkonce_odr hidden noundef zeroext i1 @_ZN8JVMCIEnv10is_hotspotEv(ptr noundef nonnull align 8 dereferenceable(64) %0) #1 comdat align 2 {
  %2 = alloca ptr, align 8
  store ptr %0, ptr %2, align 8
  %3 = load ptr, ptr %2, align 8
  %4 = getelementptr inbounds %class.JVMCIEnv, ptr %3, i32 0, i32 4
  %5 = load i8, ptr %4, align 8
  %6 = trunc i8 %5 to i1
  ret i1 %6
}

; Function Attrs: mustprogress nounwind uwtable
define hidden void @_ZN8JVMCIEnv28PrimitiveConstant_initializeEPS_(ptr noundef nonnull align 8 dereferenceable(64) %0, ptr noundef %1) #1 align 2 {
  %3 = alloca ptr, align 8
  %4 = alloca ptr, align 8
  store ptr %0, ptr %3, align 8
  store ptr %1, ptr %4, align 8
  %5 = load ptr, ptr %3, align 8
  %6 = call noundef zeroext i1 @_ZN8JVMCIEnv10is_hotspotEv(ptr noundef nonnull align 8 dereferenceable(64) %5)
  br i1 %6, label %7, label %14

7:                                                ; preds = %2
  %8 = load ptr, ptr %4, align 8
  call void @_ZN12HotSpotJVMCI17PrimitiveConstant10initializeEP8JVMCIEnv(ptr noundef %8)
  %9 = load ptr, ptr %4, align 8
  %10 = call noundef zeroext i8 @_ZN8JVMCIEnv21has_pending_exceptionEv(ptr noundef nonnull align 8 dereferenceable(64) %9)
  %11 = icmp ne i8 %10, 0
  br i1 %11, label %12, label %13

12:                                               ; preds = %7
  br label %21

13:                                               ; preds = %7
  br label %21

14:                                               ; preds = %2
  %15 = load ptr, ptr %4, align 8
  call void @_ZN8JNIJVMCI17PrimitiveConstant10initializeEP8JVMCIEnv(ptr noundef %15)
  %16 = load ptr, ptr %4, align 8
  %17 = call noundef zeroext i8 @_ZN8JVMCIEnv21has_pending_exceptionEv(ptr noundef nonnull align 8 dereferenceable(64) %16)
  %18 = icmp ne i8 %17, 0
  br i1 %18, label %19, label %20

19:                                               ; preds = %14
  br label %21

20:                                               ; preds = %14
  br label %21

21:                                               ; preds = %20, %19, %13, %12
  ret void
}